target datalayout = "e-m:e-p270:32:32-p271:32:32-p272:64:64-i64:64-i128:128-f80:128-n8:16:32:64-S128"
target triple = "x86_64-pc-linux-gnu"

%"struct.faiss::IndexLSH" = type { %"struct.faiss::IndexFlatCodes", i32, i8, i8, [2 x i8], %"struct.faiss::RandomRotationMatrix", %"class.std::vector.0" }
%"struct.faiss::IndexFlatCodes" = type { %"struct.faiss::Index.base", i64, %"class.std::vector" }
%"struct.faiss::Index.base" = type <{ ptr, i32, [4 x i8], i64, i8, i8, [2 x i8], i32, float }>
%"class.std::vector" = type { %"struct.std::_Vector_base" }
%"struct.std::_Vector_base" = type { %"struct.std::_Vector_base<unsigned char, std::allocator<unsigned char>>::_Vector_impl" }
%"struct.std::_Vector_base<unsigned char, std::allocator<unsigned char>>::_Vector_impl" = type { %"struct.std::_Vector_base<unsigned char, std::allocator<unsigned char>>::_Vector_impl_data" }
%"struct.std::_Vector_base<unsigned char, std::allocator<unsigned char>>::_Vector_impl_data" = type { ptr, ptr, ptr }
%"struct.faiss::RandomRotationMatrix" = type { %"struct.faiss::LinearTransform.base", [7 x i8] }
%"struct.faiss::LinearTransform.base" = type <{ %"struct.faiss::VectorTransform.base", i8, i8, [5 x i8], %"class.std::vector.0", %"class.std::vector.0", i8 }>
%"struct.faiss::VectorTransform.base" = type <{ ptr, i32, i32, i8 }>
%"class.std::vector.0" = type { %"struct.std::_Vector_base.1" }
%"struct.std::_Vector_base.1" = type { %"struct.std::_Vector_base<float, std::allocator<float>>::_Vector_impl" }
%"struct.std::_Vector_base<float, std::allocator<float>>::_Vector_impl" = type { %"struct.std::_Vector_base<float, std::allocator<float>>::_Vector_impl_data" }
%"struct.std::_Vector_base<float, std::allocator<float>>::_Vector_impl_data" = type { ptr, ptr, ptr }
%"struct.faiss::Index" = type <{ ptr, i32, [4 x i8], i64, i8, i8, [2 x i8], i32, float, [4 x i8] }>

; Function Attrs: mustprogress nounwind uwtable
define linkonce_odr noundef nonnull align 4 dereferenceable(4) ptr @_ZNKSt6vectorIfSaIfEEixEm(ptr noundef nonnull align 8 dereferenceable(24) %0, i64 noundef %1) #0 comdat align 2 {
  %3 = alloca ptr, align 8
  %4 = alloca i64, align 8
  store ptr %0, ptr %3, align 8
  store i64 %1, ptr %4, align 8
  %5 = load ptr, ptr %3, align 8
  %6 = getelementptr inbounds %"struct.std::_Vector_base.1", ptr %5, i32 0, i32 0
  %7 = getelementptr inbounds %"struct.std::_Vector_base<float, std::allocator<float>>::_Vector_impl_data", ptr %6, i32 0, i32 0
  %8 = load ptr, ptr %7, align 8
  %9 = load i64, ptr %4, align 8
  %10 = getelementptr inbounds float, ptr %8, i64 %9
  ret ptr %10
}

; Function Attrs: mustprogress uwtable
define noundef ptr @_ZNK5faiss8IndexLSH16apply_preprocessElPKf(ptr noundef nonnull align 8 dereferenceable(184) %0, i64 noundef %1, ptr noundef %2) #1 align 2 {
  %4 = alloca ptr, align 8
  %5 = alloca i64, align 8
  %6 = alloca ptr, align 8
  %7 = alloca ptr, align 8
  %8 = alloca ptr, align 8
  %9 = alloca i64, align 8
  %10 = alloca ptr, align 8
  %11 = alloca i32, align 4
  %12 = alloca ptr, align 8
  %13 = alloca i64, align 8
  %14 = alloca i32, align 4
  store ptr %0, ptr %4, align 8
  store i64 %1, ptr %5, align 8
  store ptr %2, ptr %6, align 8
  %15 = load ptr, ptr %4, align 8
  store ptr null, ptr %7, align 8
  %16 = getelementptr inbounds %"struct.faiss::IndexLSH", ptr %15, i32 0, i32 2
  %17 = load i8, ptr %16, align 4
  %18 = trunc i8 %17 to i1
  br i1 %18, label %19, label %24

19:                                               ; preds = %3
  %20 = getelementptr inbounds %"struct.faiss::IndexLSH", ptr %15, i32 0, i32 5
  %21 = load i64, ptr %5, align 8
  %22 = load ptr, ptr %6, align 8
  %23 = call noundef ptr @_ZNK5faiss15VectorTransform5applyElPKf(ptr noundef nonnull align 8 dereferenceable(17) %20, i64 noundef %21, ptr noundef %22)
  store ptr %23, ptr %7, align 8
  br label %76

24:                                               ; preds = %3
  %25 = getelementptr inbounds %"struct.faiss::Index", ptr %15, i32 0, i32 1
  %26 = load i32, ptr %25, align 8
  %27 = getelementptr inbounds %"struct.faiss::IndexLSH", ptr %15, i32 0, i32 1
  %28 = load i32, ptr %27, align 8
  %29 = icmp ne i32 %26, %28
  br i1 %29, label %30, label %75

30:                                               ; preds = %24
  %31 = getelementptr inbounds %"struct.faiss::IndexLSH", ptr %15, i32 0, i32 1
  %32 = load i32, ptr %31, align 8
  %33 = sext i32 %32 to i64
  %34 = load i64, ptr %5, align 8
  %35 = mul nsw i64 %33, %34
  %36 = call { i64, i1 } @llvm.umul.with.overflow.i64(i64 %35, i64 4)
  %37 = extractvalue { i64, i1 } %36, 1
  %38 = extractvalue { i64, i1 } %36, 0
  %39 = select i1 %37, i64 -1, i64 %38
  %40 = call noalias noundef nonnull ptr @_Znam(i64 noundef %39) #13
  store ptr %40, ptr %7, align 8
  %41 = load ptr, ptr %7, align 8
  store ptr %41, ptr %8, align 8
  store i64 0, ptr %9, align 8
  br label %42

42:                                               ; preds = %71, %30
  %43 = load i64, ptr %9, align 8
  %44 = load i64, ptr %5, align 8
  %45 = icmp slt i64 %43, %44
  br i1 %45, label %46, label %74

46:                                               ; preds = %42
  %47 = load ptr, ptr %6, align 8
  %48 = load i64, ptr %9, align 8
  %49 = getelementptr inbounds %"struct.faiss::Index", ptr %15, i32 0, i32 1
  %50 = load i32, ptr %49, align 8
  %51 = sext i32 %50 to i64
  %52 = mul nsw i64 %48, %51
  %53 = getelementptr inbounds float, ptr %47, i64 %52
  store ptr %53, ptr %10, align 8
  store i32 0, ptr %11, align 4
  br label %54

54:                                               ; preds = %67, %46
  %55 = load i32, ptr %11, align 4
  %56 = getelementptr inbounds %"struct.faiss::IndexLSH", ptr %15, i32 0, i32 1
  %57 = load i32, ptr %56, align 8
  %58 = icmp slt i32 %55, %57
  br i1 %58, label %59, label %70

59:                                               ; preds = %54
  %60 = load ptr, ptr %10, align 8
  %61 = load i32, ptr %11, align 4
  %62 = sext i32 %61 to i64
  %63 = getelementptr inbounds float, ptr %60, i64 %62
  %64 = load float, ptr %63, align 4
  %65 = load ptr, ptr %8, align 8
  %66 = getelementptr inbounds float, ptr %65, i32 1
  store ptr %66, ptr %8, align 8
  store float %64, ptr %65, align 4
  br label %67

67:                                               ; preds = %59
  %68 = load i32, ptr %11, align 4
  %69 = add nsw i32 %68, 1
  store i32 %69, ptr %11, align 4
  br label %54, !llvm.loop !13

70:                                               ; preds = %54
  br label %71

71:                                               ; preds = %70
  %72 = load i64, ptr %9, align 8
  %73 = add nsw i64 %72, 1
  store i64 %73, ptr %9, align 8
  br label %42, !llvm.loop !14

74:                                               ; preds = %42
  br label %75

75:                                               ; preds = %74, %24
  br label %76

76:                                               ; preds = %75, %19
  %77 = getelementptr inbounds %"struct.faiss::IndexLSH", ptr %15, i32 0, i32 3
  %78 = load i8, ptr %77, align 1
  %79 = trunc i8 %78 to i1
  br i1 %79, label %80, label %132

80:                                               ; preds = %76
  %81 = load ptr, ptr %7, align 8
  %82 = icmp eq ptr %81, null
  br i1 %82, label %83, label %102

83:                                               ; preds = %80
  %84 = getelementptr inbounds %"struct.faiss::IndexLSH", ptr %15, i32 0, i32 1
  %85 = load i32, ptr %84, align 8
  %86 = sext i32 %85 to i64
  %87 = load i64, ptr %5, align 8
  %88 = mul nsw i64 %86, %87
  %89 = call { i64, i1 } @llvm.umul.with.overflow.i64(i64 %88, i64 4)
  %90 = extractvalue { i64, i1 } %89, 1
  %91 = extractvalue { i64, i1 } %89, 0
  %92 = select i1 %90, i64 -1, i64 %91
  %93 = call noalias noundef nonnull ptr @_Znam(i64 noundef %92) #13
  store ptr %93, ptr %7, align 8
  %94 = load ptr, ptr %7, align 8
  %95 = load ptr, ptr %6, align 8
  %96 = load i64, ptr %5, align 8
  %97 = mul i64 4, %96
  %98 = getelementptr inbounds %"struct.faiss::IndexLSH", ptr %15, i32 0, i32 1
  %99 = load i32, ptr %98, align 8
  %100 = sext i32 %99 to i64
  %101 = mul i64 %97, %100
  call void @llvm.memcpy.p0.p0.i64(ptr align 4 %94, ptr align 4 %95, i64 %101, i1 false)
  br label %102

102:                                              ; preds = %83, %80
  %103 = load ptr, ptr %7, align 8
  store ptr %103, ptr %12, align 8
  store i64 0, ptr %13, align 8
  br label %104

104:                                              ; preds = %128, %102
  %105 = load i64, ptr %13, align 8
  %106 = load i64, ptr %5, align 8
  %107 = icmp slt i64 %105, %106
  br i1 %107, label %108, label %131

108:                                              ; preds = %104
  store i32 0, ptr %14, align 4
  br label %109

109:                                              ; preds = %124, %108
  %110 = load i32, ptr %14, align 4
  %111 = getelementptr inbounds %"struct.faiss::IndexLSH", ptr %15, i32 0, i32 1
  %112 = load i32, ptr %111, align 8
  %113 = icmp slt i32 %110, %112
  br i1 %113, label %114, label %127

114:                                              ; preds = %109
  %115 = getelementptr inbounds %"struct.faiss::IndexLSH", ptr %15, i32 0, i32 6
  %116 = load i32, ptr %14, align 4
  %117 = sext i32 %116 to i64
  %118 = call noundef nonnull align 4 dereferenceable(4) ptr @_ZNKSt6vectorIfSaIfEEixEm(ptr noundef nonnull align 8 dereferenceable(24) %115, i64 noundef %117) #11
  %119 = load float, ptr %118, align 4
  %120 = load ptr, ptr %12, align 8
  %121 = getelementptr inbounds float, ptr %120, i32 1
  store ptr %121, ptr %12, align 8
  %122 = load float, ptr %120, align 4
  %123 = fsub float %122, %119
  store float %123, ptr %120, align 4
  br label %124

124:                                              ; preds = %114
  %125 = load i32, ptr %14, align 4
  %126 = add nsw i32 %125, 1
  store i32 %126, ptr %14, align 4
  br label %109, !llvm.loop !15

127:                                              ; preds = %109
  br label %128

128:                                              ; preds = %127
  %129 = load i64, ptr %13, align 8
  %130 = add nsw i64 %129, 1
  store i64 %130, ptr %13, align 8
  br label %104, !llvm.loop !16

131:                                              ; preds = %104
  br label %132

132:                                              ; preds = %131, %76
  %133 = load ptr, ptr %7, align 8
  %134 = icmp ne ptr %133, null
  br i1 %134, label %135, label %137

135:                                              ; preds = %132
  %136 = load ptr, ptr %7, align 8
  br label %139

137:                                              ; preds = %132
  %138 = load ptr, ptr %6, align 8
  br label %139

139:                                              ; preds = %137, %135
  %140 = phi ptr [ %136, %135 ], [ %138, %137 ]
  ret ptr %140
}