; Function Attrs: mustprogress uwtable
define noundef ptr @_ZNK5faiss8IndexLSH16apply_preprocessElPKf(ptr noundef nonnull align 8 dereferenceable(184) %0, i64 noundef %1, ptr noundef %2) local_unnamed_addr #1 align 2 {
  %4 = getelementptr inbounds i8, ptr %0, i64 76
  %5 = load i8, ptr %4, align 4
  %6 = and i8 %5, 1
  %.not = icmp eq i8 %6, 0
  br i1 %.not, label %10, label %7

7:                                                ; preds = %3
  %8 = getelementptr inbounds i8, ptr %0, i64 80
  %9 = tail call noundef ptr @_ZNK5faiss15VectorTransform5applyElPKf(ptr noundef nonnull align 8 dereferenceable(17) %8, i64 noundef %1, ptr noundef %2)
  br label %.loopexit47

10:                                               ; preds = %3
  %11 = getelementptr inbounds i8, ptr %0, i64 8
  %12 = load i32, ptr %11, align 8
  %13 = getelementptr inbounds i8, ptr %0, i64 72
  %14 = load i32, ptr %13, align 8
  %.not39 = icmp eq i32 %12, %14
  br i1 %.not39, label %.thread, label %15

15:                                               ; preds = %10
  %16 = sext i32 %14 to i64
  %17 = mul nsw i64 %16, %1
  %18 = icmp ugt i64 %17, 4611686018427387903
  %19 = shl i64 %17, 2
  %20 = select i1 %18, i64 -1, i64 %19
  %21 = tail call noalias noundef nonnull ptr @_Znam(i64 noundef %20) #16
  %22 = icmp sgt i64 %1, 0
  %23 = icmp sgt i32 %14, 0
  %or.cond = and i1 %22, %23
  br i1 %or.cond, label %.lr.ph53.split, label %.loopexit47

.lr.ph53.split:                                   ; preds = %15, %._crit_edge
  %24 = phi i32 [ %36, %._crit_edge ], [ %14, %15 ]
  %.03551 = phi i64 [ %37, %._crit_edge ], [ 0, %15 ]
  %.03650 = phi ptr [ %.137.lcssa, %._crit_edge ], [ %21, %15 ]
  %25 = load i32, ptr %11, align 8
  %26 = sext i32 %25 to i64
  %27 = mul nsw i64 %.03551, %26
  %28 = getelementptr inbounds float, ptr %2, i64 %27
  %29 = icmp sgt i32 %24, 0
  br i1 %29, label %.lr.ph, label %._crit_edge

.lr.ph:                                           ; preds = %.lr.ph53.split, %.lr.ph
  %indvars.iv = phi i64 [ %indvars.iv.next, %.lr.ph ], [ 0, %.lr.ph53.split ]
  %.13748 = phi ptr [ %32, %.lr.ph ], [ %.03650, %.lr.ph53.split ]
  %30 = getelementptr inbounds float, ptr %28, i64 %indvars.iv
  %31 = load float, ptr %30, align 4
  %32 = getelementptr inbounds i8, ptr %.13748, i64 4
  store float %31, ptr %.13748, align 4
  %indvars.iv.next = add nuw nsw i64 %indvars.iv, 1
  %33 = load i32, ptr %13, align 8
  %34 = sext i32 %33 to i64
  %35 = icmp slt i64 %indvars.iv.next, %34
  br i1 %35, label %.lr.ph, label %._crit_edge, !llvm.loop !14

._crit_edge:                                      ; preds = %.lr.ph, %.lr.ph53.split
  %36 = phi i32 [ %24, %.lr.ph53.split ], [ %33, %.lr.ph ]
  %.137.lcssa = phi ptr [ %.03650, %.lr.ph53.split ], [ %32, %.lr.ph ]
  %37 = add nuw nsw i64 %.03551, 1
  %exitcond.not = icmp eq i64 %37, %1
  br i1 %exitcond.not, label %.loopexit47, label %.lr.ph53.split, !llvm.loop !15

.loopexit47:                                      ; preds = %._crit_edge, %15, %7
  %.033 = phi ptr [ %9, %7 ], [ %21, %15 ], [ %21, %._crit_edge ]
  %38 = getelementptr inbounds i8, ptr %0, i64 77
  %39 = load i8, ptr %38, align 1
  %40 = and i8 %39, 1
  %.not40 = icmp eq i8 %40, 0
  br i1 %.not40, label %.loopexit, label %44

.thread:                                          ; preds = %10
  %41 = getelementptr inbounds i8, ptr %0, i64 77
  %42 = load i8, ptr %41, align 1
  %43 = and i8 %42, 1
  %.not4043 = icmp eq i8 %43, 0
  br i1 %.not4043, label %.loopexit, label %.thread45

44:                                               ; preds = %.loopexit47
  %45 = icmp eq ptr %.033, null
  br i1 %45, label %..thread45_crit_edge, label %55

..thread45_crit_edge:                             ; preds = %44
  %.phi.trans.insert = getelementptr inbounds i8, ptr %0, i64 72
  %.pre = load i32, ptr %.phi.trans.insert, align 8
  br label %.thread45

.thread45:                                        ; preds = %..thread45_crit_edge, %.thread
  %46 = phi i32 [ %.pre, %..thread45_crit_edge ], [ %12, %.thread ]
  %47 = sext i32 %46 to i64
  %48 = mul nsw i64 %47, %1
  %49 = icmp ugt i64 %48, 4611686018427387903
  %50 = shl i64 %48, 2
  %51 = select i1 %49, i64 -1, i64 %50
  %52 = tail call noalias noundef nonnull ptr @_Znam(i64 noundef %51) #16
  %53 = shl i64 %1, 2
  %54 = mul i64 %53, %47
  tail call void @llvm.memcpy.p0.p0.i64(ptr nonnull align 4 %52, ptr align 4 %2, i64 %54, i1 false)
  br label %55

55:                                               ; preds = %.thread45, %44
  %.134 = phi ptr [ %52, %.thread45 ], [ %.033, %44 ]
  %56 = icmp sgt i64 %1, 0
  br i1 %56, label %.preheader.lr.ph, label %.loopexit

.preheader.lr.ph:                                 ; preds = %55
  %57 = getelementptr inbounds i8, ptr %0, i64 72
  %58 = getelementptr inbounds i8, ptr %0, i64 160
  %59 = load i32, ptr %57, align 8
  %60 = icmp sgt i32 %59, 0
  br i1 %60, label %.preheader, label %.loopexit

.preheader:                                       ; preds = %.preheader.lr.ph, %._crit_edge57
  %61 = phi i32 [ %72, %._crit_edge57 ], [ %59, %.preheader.lr.ph ]
  %.03060 = phi i64 [ %73, %._crit_edge57 ], [ 0, %.preheader.lr.ph ]
  %.03159 = phi ptr [ %.1.lcssa, %._crit_edge57 ], [ %.134, %.preheader.lr.ph ]
  %62 = icmp sgt i32 %61, 0
  br i1 %62, label %.lr.ph56, label %._crit_edge57

.lr.ph56:                                         ; preds = %.preheader, %.lr.ph56
  %indvars.iv65 = phi i64 [ %indvars.iv.next66, %.lr.ph56 ], [ 0, %.preheader ]
  %.154 = phi ptr [ %66, %.lr.ph56 ], [ %.03159, %.preheader ]
  %63 = load ptr, ptr %58, align 8
  %64 = getelementptr inbounds float, ptr %63, i64 %indvars.iv65
  %65 = load float, ptr %64, align 4
  %66 = getelementptr inbounds i8, ptr %.154, i64 4
  %67 = load float, ptr %.154, align 4
  %68 = fsub float %67, %65
  store float %68, ptr %.154, align 4
  %indvars.iv.next66 = add nuw nsw i64 %indvars.iv65, 1
  %69 = load i32, ptr %57, align 8
  %70 = sext i32 %69 to i64
  %71 = icmp slt i64 %indvars.iv.next66, %70
  br i1 %71, label %.lr.ph56, label %._crit_edge57, !llvm.loop !16

._crit_edge57:                                    ; preds = %.lr.ph56, %.preheader
  %72 = phi i32 [ %61, %.preheader ], [ %69, %.lr.ph56 ]
  %.1.lcssa = phi ptr [ %.03159, %.preheader ], [ %66, %.lr.ph56 ]
  %73 = add nuw nsw i64 %.03060, 1
  %exitcond68.not = icmp eq i64 %73, %1
  br i1 %exitcond68.not, label %.loopexit, label %.preheader, !llvm.loop !17

.loopexit:                                        ; preds = %._crit_edge57, %.preheader.lr.ph, %55, %.thread, %.loopexit47
  %.2 = phi ptr [ %.033, %.loopexit47 ], [ null, %.thread ], [ %.134, %55 ], [ %.134, %.preheader.lr.ph ], [ %.134, %._crit_edge57 ]
  %.not41 = icmp eq ptr %.2, null
  %74 = select i1 %.not41, ptr %2, ptr %.2
  ret ptr %74
}